target datalayout = "e-m:e-p270:32:32-p271:32:32-p272:64:64-i64:64-i128:128-f80:128-n8:16:32:64-S128"
target triple = "x86_64-pc-linux-gnu"

%struct.libpq_source = type { %struct.rewind_source, ptr, i32, [1000 x %struct.fetch_range_request], %struct.StringInfoData, %struct.StringInfoData, %struct.StringInfoData }
%struct.rewind_source = type { ptr, ptr, ptr, ptr, ptr, ptr, ptr }
%struct.fetch_range_request = type { ptr, i64, i64 }
%struct.StringInfoData = type { ptr, i32, i32, i32 }

@__pg_log_level = external global i32, align 4
@.str.40 = private unnamed_addr constant [31 x i8] c"SELECT pg_read_binary_file($1)\00", align 1
@.str.41 = private unnamed_addr constant [37 x i8] c"could not fetch remote file \22%s\22: %s\00", align 1
@.str.42 = private unnamed_addr constant [54 x i8] c"unexpected result set while fetching remote file \22%s\22\00", align 1
@.str.43 = private unnamed_addr constant [29 x i8] c"fetched file \22%s\22, length %d\00", align 1

; Function Attrs: nounwind uwtable
define internal ptr @libpq_fetch_file(ptr noundef %0, ptr noundef %1, ptr noundef %2) #0 {
  %4 = alloca ptr, align 8
  %5 = alloca ptr, align 8
  %6 = alloca ptr, align 8
  %7 = alloca ptr, align 8
  %8 = alloca ptr, align 8
  %9 = alloca ptr, align 8
  %10 = alloca i32, align 4
  %11 = alloca [1 x ptr], align 8
  store ptr %0, ptr %4, align 8
  store ptr %1, ptr %5, align 8
  store ptr %2, ptr %6, align 8
  call void @llvm.lifetime.start.p0(i64 8, ptr %7) #10
  %12 = load ptr, ptr %4, align 8
  %13 = getelementptr inbounds nuw %struct.libpq_source, ptr %12, i32 0, i32 1
  %14 = load ptr, ptr %13, align 8
  store ptr %14, ptr %7, align 8
  call void @llvm.lifetime.start.p0(i64 8, ptr %8) #10
  call void @llvm.lifetime.start.p0(i64 8, ptr %9) #10
  call void @llvm.lifetime.start.p0(i64 4, ptr %10) #10
  call void @llvm.lifetime.start.p0(i64 8, ptr %11) #10
  %15 = load ptr, ptr %5, align 8
  %16 = getelementptr inbounds [1 x ptr], ptr %11, i64 0, i64 0
  store ptr %15, ptr %16, align 8
  %17 = load ptr, ptr %7, align 8
  %18 = getelementptr inbounds [1 x ptr], ptr %11, i64 0, i64 0
  %19 = call ptr @PQexecParams(ptr noundef %17, ptr noundef @.str.40, i32 noundef 1, ptr noundef null, ptr noundef %18, ptr noundef null, ptr noundef null, i32 noundef 1)
  store ptr %19, ptr %8, align 8
  %20 = load ptr, ptr %8, align 8
  %21 = call i32 @PQresultStatus(ptr noundef %20)
  %22 = icmp ne i32 %21, 2
  br i1 %22, label %23, label %30

23:                                               ; preds = %3
  br label %24

24:                                               ; preds = %23
  %25 = load ptr, ptr %5, align 8
  %26 = load ptr, ptr %8, align 8
  %27 = call ptr @PQresultErrorMessage(ptr noundef %26)
  call void (i32, i32, ptr, ...) @pg_log_generic(i32 noundef 4, i32 noundef 0, ptr noundef @.str.41, ptr noundef %25, ptr noundef %27)
  call void @exit(i32 noundef 1) #11
  unreachable

28:                                               ; No predecessors!
  br label %29

29:                                               ; preds = %28
  br label %30

30:                                               ; preds = %29, %3
  %31 = load ptr, ptr %8, align 8
  %32 = call i32 @PQntuples(ptr noundef %31)
  %33 = icmp ne i32 %32, 1
  br i1 %33, label %38, label %34

34:                                               ; preds = %30
  %35 = load ptr, ptr %8, align 8
  %36 = call i32 @PQgetisnull(ptr noundef %35, i32 noundef 0, i32 noundef 0)
  %37 = icmp ne i32 %36, 0
  br i1 %37, label %38, label %43

38:                                               ; preds = %34, %30
  br label %39

39:                                               ; preds = %38
  %40 = load ptr, ptr %5, align 8
  call void (i32, i32, ptr, ...) @pg_log_generic(i32 noundef 4, i32 noundef 0, ptr noundef @.str.42, ptr noundef %40)
  call void @exit(i32 noundef 1) #11
  unreachable

41:                                               ; No predecessors!
  br label %42

42:                                               ; preds = %41
  br label %43

43:                                               ; preds = %42, %34
  %44 = load ptr, ptr %8, align 8
  %45 = call i32 @PQgetlength(ptr noundef %44, i32 noundef 0, i32 noundef 0)
  store i32 %45, ptr %10, align 4
  %46 = load i32, ptr %10, align 4
  %47 = add i32 %46, 1
  %48 = sext i32 %47 to i64
  %49 = call ptr @pg_malloc(i64 noundef %48)
  store ptr %49, ptr %9, align 8
  %50 = load ptr, ptr %9, align 8
  %51 = load ptr, ptr %8, align 8
  %52 = call ptr @PQgetvalue(ptr noundef %51, i32 noundef 0, i32 noundef 0)
  %53 = load i32, ptr %10, align 4
  %54 = sext i32 %53 to i64
  call void @llvm.memcpy.p0.p0.i64(ptr align 1 %50, ptr align 1 %52, i64 %54, i1 false)
  %55 = load ptr, ptr %9, align 8
  %56 = load i32, ptr %10, align 4
  %57 = sext i32 %56 to i64
  %58 = getelementptr inbounds i8, ptr %55, i64 %57
  store i8 0, ptr %58, align 1
  %59 = load ptr, ptr %8, align 8
  call void @PQclear(ptr noundef %59)
  br label %60

60:                                               ; preds = %43
  %61 = load i32, ptr @__pg_log_level, align 4
  %62 = icmp ule i32 %61, 1
  %63 = zext i1 %62 to i32
  %64 = icmp ne i32 %63, 0
  %65 = zext i1 %64 to i32
  %66 = sext i32 %65 to i64
  %67 = call i64 @llvm.expect.i64(i64 %66, i64 0)
  %68 = icmp ne i64 %67, 0
  br i1 %68, label %69, label %72

69:                                               ; preds = %60
  %70 = load ptr, ptr %5, align 8
  %71 = load i32, ptr %10, align 4
  call void (i32, i32, ptr, ...) @pg_log_generic(i32 noundef 1, i32 noundef 0, ptr noundef @.str.43, ptr noundef %70, i32 noundef %71)
  br label %72

72:                                               ; preds = %69, %60
  br label %73

73:                                               ; preds = %72
  br label %74

74:                                               ; preds = %73
  %75 = load ptr, ptr %6, align 8
  %76 = icmp ne ptr %75, null
  br i1 %76, label %77, label %81

77:                                               ; preds = %74
  %78 = load i32, ptr %10, align 4
  %79 = sext i32 %78 to i64
  %80 = load ptr, ptr %6, align 8
  store i64 %79, ptr %80, align 8
  br label %81

81:                                               ; preds = %77, %74
  %82 = load ptr, ptr %9, align 8
  call void @llvm.lifetime.end.p0(i64 8, ptr %11) #10
  call void @llvm.lifetime.end.p0(i64 4, ptr %10) #10
  call void @llvm.lifetime.end.p0(i64 8, ptr %9) #10
  call void @llvm.lifetime.end.p0(i64 8, ptr %8) #10
  call void @llvm.lifetime.end.p0(i64 8, ptr %7) #10
  ret ptr %82
}