; Function Attrs: nounwind uwtable
define internal ptr @libpq_fetch_file(ptr noundef readonly captures(none) %0, ptr noundef %1, ptr noundef writeonly captures(address_is_null) %2) #0 {
  %4 = alloca [1 x ptr], align 8
  %5 = getelementptr inbounds nuw i8, ptr %0, i64 56
  %6 = load ptr, ptr %5, align 8
  call void @llvm.lifetime.start.p0(i64 8, ptr nonnull %4) #10
  store ptr %1, ptr %4, align 8
  %7 = call ptr @PQexecParams(ptr noundef %6, ptr noundef nonnull @.str.40, i32 noundef 1, ptr noundef null, ptr noundef nonnull %4, ptr noundef null, ptr noundef null, i32 noundef 1) #10
  %8 = call i32 @PQresultStatus(ptr noundef %7) #10
  %.not = icmp eq i32 %8, 2
  br i1 %.not, label %11, label %9

9:                                                ; preds = %3
  %10 = call ptr @PQresultErrorMessage(ptr noundef %7) #10
  call void (i32, i32, ptr, ...) @pg_log_generic(i32 noundef 4, i32 noundef 0, ptr noundef nonnull @.str.41, ptr noundef %1, ptr noundef %10) #10
  call void @exit(i32 noundef 1) #11
  unreachable

11:                                               ; preds = %3
  %12 = call i32 @PQntuples(ptr noundef %7) #10
  %.not22 = icmp eq i32 %12, 1
  br i1 %.not22, label %13, label %15

13:                                               ; preds = %11
  %14 = call i32 @PQgetisnull(ptr noundef %7, i32 noundef 0, i32 noundef 0) #10
  %.not23 = icmp eq i32 %14, 0
  br i1 %.not23, label %16, label %15

15:                                               ; preds = %11, %13
  call void (i32, i32, ptr, ...) @pg_log_generic(i32 noundef 4, i32 noundef 0, ptr noundef nonnull @.str.42, ptr noundef %1) #10
  call void @exit(i32 noundef 1) #11
  unreachable

16:                                               ; preds = %13
  %17 = call i32 @PQgetlength(ptr noundef %7, i32 noundef 0, i32 noundef 0) #10
  %18 = add i32 %17, 1
  %19 = sext i32 %18 to i64
  %20 = call ptr @pg_malloc(i64 noundef %19) #10
  %21 = call ptr @PQgetvalue(ptr noundef %7, i32 noundef 0, i32 noundef 0) #10
  %22 = sext i32 %17 to i64
  call void @llvm.memcpy.p0.p0.i64(ptr align 1 %20, ptr align 1 %21, i64 %22, i1 false)
  %23 = getelementptr inbounds i8, ptr %20, i64 %22
  store i8 0, ptr %23, align 1
  call void @PQclear(ptr noundef %7) #10
  %24 = load i32, ptr @__pg_log_level, align 4
  %25 = icmp ult i32 %24, 2
  br i1 %25, label %26, label %27, !prof !6

26:                                               ; preds = %16
  call void (i32, i32, ptr, ...) @pg_log_generic(i32 noundef 1, i32 noundef 0, ptr noundef nonnull @.str.43, ptr noundef %1, i32 noundef %17) #10
  br label %27

27:                                               ; preds = %26, %16
  %.not24 = icmp eq ptr %2, null
  br i1 %.not24, label %29, label %28

28:                                               ; preds = %27
  store i64 %22, ptr %2, align 8
  br label %29

29:                                               ; preds = %28, %27
  call void @llvm.lifetime.end.p0(i64 8, ptr nonnull %4) #10
  ret ptr %20
}